; ModuleID = '17/676.c'
source_filename = "17/676.c"
target datalayout = "e-m:e-p270:32:32-p271:32:32-p272:64:64-i64:64-f80:128-n8:16:32:64-S128"
target triple = "x86_64-pc-linux-gnu"

%struct._IO_FILE = type { i32, i8*, i8*, i8*, i8*, i8*, i8*, i8*, i8*, i8*, i8*, i8*, %struct._IO_marker*, %struct._IO_FILE*, i32, i32, i64, i16, i8, [1 x i8], i8*, i64, %struct._IO_codecvt*, %struct._IO_wide_data*, %struct._IO_FILE*, i8*, i64, i32, [20 x i8] }
%struct._IO_marker = type opaque
%struct._IO_codecvt = type opaque
%struct._IO_wide_data = type opaque

@.str = private unnamed_addr constant [3 x i8] c"%d\00", align 1
@.str.1 = private unnamed_addr constant [3 x i8] c"%s\00", align 1
@.str.2 = private unnamed_addr constant [4 x i8] c"%s\0A\00", align 1
@.str.3 = private unnamed_addr constant [2 x i8] c"\0A\00", align 1
@stdin = external dso_local global %struct._IO_FILE*, align 8

; Function Attrs: noinline nounwind uwtable
define dso_local i32 @main() #0 {
  %1 = alloca i32, align 4
  %2 = alloca i32, align 4
  %3 = alloca i32, align 4
  %4 = alloca i32, align 4
  %5 = alloca [500 x i8], align 16
  %6 = alloca [500 x i8], align 16
  %7 = alloca i32, align 4
  store i32 0, i32* %1, align 4
  %8 = bitcast [500 x i8]* %5 to i8*
  call void @llvm.memset.p0i8.i64(i8* align 16 %8, i8 0, i64 500, i1 false)
  %9 = bitcast [500 x i8]* %6 to i8*
  call void @llvm.memset.p0i8.i64(i8* align 16 %9, i8 0, i64 500, i1 false)
  %10 = call i32 (i8*, ...) @__isoc99_scanf(i8* getelementptr inbounds ([3 x i8], [3 x i8]* @.str, i64 0, i64 0), i32* %3)
  store i32 1, i32* %4, align 4
  br label %11

11:                                               ; preds = %93, %0
  %12 = load i32, i32* %4, align 4
  %13 = load i32, i32* %3, align 4
  %14 = icmp sle i32 %12, %13
  br i1 %14, label %15, label %96

15:                                               ; preds = %11
  %16 = getelementptr inbounds [500 x i8], [500 x i8]* %5, i64 0, i64 0
  %17 = call i32 (i8*, ...) @__isoc99_scanf(i8* getelementptr inbounds ([3 x i8], [3 x i8]* @.str.1, i64 0, i64 0), i8* %16)
  %18 = getelementptr inbounds [500 x i8], [500 x i8]* %5, i64 0, i64 0
  %19 = call i32 (i8*, ...) @printf(i8* getelementptr inbounds ([4 x i8], [4 x i8]* @.str.2, i64 0, i64 0), i8* %18)
  store i32 0, i32* %2, align 4
  br label %20

20:                                               ; preds = %82, %15
  %21 = load i32, i32* %2, align 4
  %22 = sext i32 %21 to i64
  %23 = getelementptr inbounds [500 x i8], [500 x i8]* %5, i64 0, i64 %22
  %24 = load i8, i8* %23, align 1
  %25 = sext i8 %24 to i32
  %26 = icmp ne i32 %25, 0
  br i1 %26, label %27, label %85

27:                                               ; preds = %20
  %28 = load i32, i32* %2, align 4
  %29 = sext i32 %28 to i64
  %30 = getelementptr inbounds [500 x i8], [500 x i8]* %5, i64 0, i64 %29
  %31 = load i8, i8* %30, align 1
  %32 = sext i8 %31 to i32
  %33 = icmp eq i32 %32, 40
  br i1 %33, label %34, label %38

34:                                               ; preds = %27
  %35 = load i32, i32* %2, align 4
  %36 = sext i32 %35 to i64
  %37 = getelementptr inbounds [500 x i8], [500 x i8]* %6, i64 0, i64 %36
  store i8 36, i8* %37, align 1
  br label %82

38:                                               ; preds = %27
  %39 = load i32, i32* %2, align 4
  %40 = sext i32 %39 to i64
  %41 = getelementptr inbounds [500 x i8], [500 x i8]* %5, i64 0, i64 %40
  %42 = load i8, i8* %41, align 1
  %43 = sext i8 %42 to i32
  %44 = icmp eq i32 %43, 41
  br i1 %44, label %45, label %77

45:                                               ; preds = %38
  %46 = load i32, i32* %2, align 4
  %47 = sub nsw i32 %46, 1
  store i32 %47, i32* %7, align 4
  br label %48

48:                                               ; preds = %66, %45
  %49 = load i32, i32* %7, align 4
  %50 = icmp sge i32 %49, 0
  br i1 %50, label %51, label %69

51:                                               ; preds = %48
  %52 = load i32, i32* %7, align 4
  %53 = sext i32 %52 to i64
  %54 = getelementptr inbounds [500 x i8], [500 x i8]* %6, i64 0, i64 %53
  %55 = load i8, i8* %54, align 1
  %56 = sext i8 %55 to i32
  %57 = icmp eq i32 %56, 36
  br i1 %57, label %58, label %65

58:                                               ; preds = %51
  %59 = load i32, i32* %7, align 4
  %60 = sext i32 %59 to i64
  %61 = getelementptr inbounds [500 x i8], [500 x i8]* %6, i64 0, i64 %60
  store i8 32, i8* %61, align 1
  %62 = load i32, i32* %2, align 4
  %63 = sext i32 %62 to i64
  %64 = getelementptr inbounds [500 x i8], [500 x i8]* %6, i64 0, i64 %63
  store i8 32, i8* %64, align 1
  br label %69

65:                                               ; preds = %51
  br label %66

66:                                               ; preds = %65
  %67 = load i32, i32* %7, align 4
  %68 = add nsw i32 %67, -1
  store i32 %68, i32* %7, align 4
  br label %48

69:                                               ; preds = %58, %48
  %70 = load i32, i32* %7, align 4
  %71 = icmp eq i32 %70, -1
  br i1 %71, label %72, label %76

72:                                               ; preds = %69
  %73 = load i32, i32* %2, align 4
  %74 = sext i32 %73 to i64
  %75 = getelementptr inbounds [500 x i8], [500 x i8]* %6, i64 0, i64 %74
  store i8 63, i8* %75, align 1
  br label %76

76:                                               ; preds = %72, %69
  br label %81

77:                                               ; preds = %38
  %78 = load i32, i32* %2, align 4
  %79 = sext i32 %78 to i64
  %80 = getelementptr inbounds [500 x i8], [500 x i8]* %6, i64 0, i64 %79
  store i8 32, i8* %80, align 1
  br label %81

81:                                               ; preds = %77, %76
  br label %82

82:                                               ; preds = %81, %34
  %83 = load i32, i32* %2, align 4
  %84 = add nsw i32 %83, 1
  store i32 %84, i32* %2, align 4
  br label %20

85:                                               ; preds = %20
  %86 = getelementptr inbounds [500 x i8], [500 x i8]* %6, i64 0, i64 0
  %87 = call i32 (i8*, ...) @printf(i8* getelementptr inbounds ([3 x i8], [3 x i8]* @.str.1, i64 0, i64 0), i8* %86)
  %88 = call i32 (i8*, ...) @printf(i8* getelementptr inbounds ([2 x i8], [2 x i8]* @.str.3, i64 0, i64 0))
  %89 = getelementptr inbounds [500 x i8], [500 x i8]* %6, i64 0, i64 0
  call void @llvm.memset.p0i8.i64(i8* align 16 %89, i8 0, i64 500, i1 false)
  %90 = getelementptr inbounds [500 x i8], [500 x i8]* %5, i64 0, i64 0
  call void @llvm.memset.p0i8.i64(i8* align 16 %90, i8 0, i64 500, i1 false)
  %91 = load %struct._IO_FILE*, %struct._IO_FILE** @stdin, align 8
  %92 = call i32 @fflush(%struct._IO_FILE* %91)
  br label %93

93:                                               ; preds = %85
  %94 = load i32, i32* %4, align 4
  %95 = add nsw i32 %94, 1
  store i32 %95, i32* %4, align 4
  br label %11

96:                                               ; preds = %11
  ret i32 0
}

; Function Attrs: argmemonly nounwind willreturn
declare void @llvm.memset.p0i8.i64(i8* nocapture writeonly, i8, i64, i1 immarg) #1

declare dso_local i32 @__isoc99_scanf(i8*, ...) #2

declare dso_local i32 @printf(i8*, ...) #2

declare dso_local i32 @fflush(%struct._IO_FILE*) #2


!llvm.module.flags = !{!0}
!llvm.ident = !{!1}

!0 = !{i32 1, !"wchar_size", i32 4}
!1 = !{!"clang version 10.0.0-4ubuntu1 "}
